target datalayout = "e-m:e-p270:32:32-p271:32:32-p272:64:64-i64:64-i128:128-f80:128-n8:16:32:64-S128"
target triple = "x86_64-pc-linux-gnu"

%struct.CeltPVQ = type { [256 x i32], [256 x float], ptr, ptr }

; Function Attrs: cold nounwind optsize uwtable
define i32 @ff_celt_pvq_init(ptr noundef %0, i32 noundef %1) #0 {
  %3 = alloca i32, align 4
  %4 = alloca ptr, align 8
  %5 = alloca i32, align 4
  %6 = alloca ptr, align 8
  %7 = alloca i32, align 4
  store ptr %0, ptr %4, align 8, !tbaa !4
  store i32 %1, ptr %5, align 4, !tbaa !10
  call void @llvm.lifetime.start.p0(i64 8, ptr %6) #10
  %8 = call noalias ptr @av_malloc(i64 noundef 2064)
  store ptr %8, ptr %6, align 8, !tbaa !12
  %9 = load ptr, ptr %6, align 8, !tbaa !12
  %10 = icmp ne ptr %9, null
  br i1 %10, label %12, label %11

11:                                               ; preds = %2
  store i32 -12, ptr %3, align 4
  store i32 1, ptr %7, align 4
  br label %22

12:                                               ; preds = %2
  %13 = load i32, ptr %5, align 4, !tbaa !10
  %14 = icmp ne i32 %13, 0
  %15 = select i1 %14, ptr @pvq_encode_band, ptr @pvq_decode_band
  %16 = load ptr, ptr %6, align 8, !tbaa !12
  %17 = getelementptr inbounds nuw %struct.CeltPVQ, ptr %16, i32 0, i32 3
  store ptr %15, ptr %17, align 8, !tbaa !14
  %18 = load ptr, ptr %6, align 8, !tbaa !12
  %19 = getelementptr inbounds nuw %struct.CeltPVQ, ptr %18, i32 0, i32 2
  store ptr @ppp_pvq_search_c, ptr %19, align 16, !tbaa !16
  %20 = load ptr, ptr %6, align 8, !tbaa !12
  %21 = load ptr, ptr %4, align 8, !tbaa !4
  store ptr %20, ptr %21, align 8, !tbaa !12
  store i32 0, ptr %3, align 4
  store i32 1, ptr %7, align 4
  br label %22

22:                                               ; preds = %12, %11
  call void @llvm.lifetime.end.p0(i64 8, ptr %6) #10
  %23 = load i32, ptr %3, align 4
  ret i32 %23
}