; Function Attrs: cold nounwind optsize uwtable
define range(i32 -12, 1) i32 @ff_celt_pvq_init(ptr noundef writeonly captures(none) %0, i32 noundef %1) local_unnamed_addr #0 {
  %3 = tail call noalias ptr @av_malloc(i64 noundef 2064) #10
  %.not = icmp eq ptr %3, null
  br i1 %.not, label %8, label %4

4:                                                ; preds = %2
  %.not7 = icmp eq i32 %1, 0
  %5 = select i1 %.not7, ptr @pvq_decode_band, ptr @pvq_encode_band
  %6 = getelementptr inbounds nuw i8, ptr %3, i64 2056
  store ptr %5, ptr %6, align 8, !tbaa !4
  %7 = getelementptr inbounds nuw i8, ptr %3, i64 2048
  store ptr @ppp_pvq_search_c, ptr %7, align 16, !tbaa !9
  store ptr %3, ptr %0, align 8, !tbaa !10
  br label %8

8:                                                ; preds = %2, %4
  %.0 = phi i32 [ 0, %4 ], [ -12, %2 ]
  ret i32 %.0
}